target datalayout = "e-m:e-p270:32:32-p271:32:32-p272:64:64-i64:64-i128:128-f80:128-n8:16:32:64-S128"
target triple = "x86_64-pc-linux-gnu"

%"class.std::__cxx11::basic_string" = type { %"struct.std::__cxx11::basic_string<char>::_Alloc_hider", i64, %union.anon }
%"struct.std::__cxx11::basic_string<char>::_Alloc_hider" = type { ptr }
%union.anon = type { i64, [8 x i8] }
%"class.pybind11::handle" = type { ptr }
%"struct.pybind11::buffer_info" = type <{ ptr, i64, i64, %"class.std::__cxx11::basic_string", i64, %"class.std::vector", %"class.std::vector", i8, [7 x i8], ptr, i8, [7 x i8] }>
%"class.std::vector" = type { %"struct.std::_Vector_base" }
%"struct.std::_Vector_base" = type { %"struct.std::_Vector_base<long, std::allocator<long>>::_Vector_impl" }
%"struct.std::_Vector_base<long, std::allocator<long>>::_Vector_impl" = type { %"struct.std::_Vector_base<long, std::allocator<long>>::_Vector_impl_data" }
%"struct.std::_Vector_base<long, std::allocator<long>>::_Vector_impl_data" = type { ptr, ptr, ptr }
%class.anon.1040 = type { { i64, i64 } }
%"class.pybind11::detail::type_caster_generic" = type { ptr, ptr, ptr }
%"class.pybind11::detail::type_caster.1016" = type { %"class.pybind11::detail::type_caster_base.1017" }
%"class.pybind11::detail::type_caster_base.1017" = type { %"class.pybind11::detail::type_caster_generic" }
%class.anon.1042 = type { i8 }
%struct.capture.1041 = type { %class.anon.1040 }

@.str.87 = private unnamed_addr constant [1 x i8] zeroinitializer, align 1
@_ZTIN8pybind1120reference_cast_errorE = linkonce_odr hidden constant { ptr, ptr, ptr } { ptr getelementptr inbounds (ptr, ptr @_ZTVN10__cxxabiv120__si_class_type_infoE, i64 2), ptr @_ZTSN8pybind1120reference_cast_errorE, ptr @_ZTIN8pybind1117builtin_exceptionE }, comdat, align 8
@_ZTIZ22test_submodule_buffersRN8pybind117module_EE20BufferReadOnlySelect = internal constant { ptr, ptr } { ptr getelementptr inbounds (ptr, ptr @_ZTVN10__cxxabiv117__class_type_infoE, i64 2), ptr @_ZTSZ22test_submodule_buffersRN8pybind117module_EE20BufferReadOnlySelect }, align 8

; Function Attrs: inlinehint mustprogress uwtable
define linkonce_odr hidden void @_ZN8pybind1117builtin_exceptionCI2St13runtime_errorEPKc(ptr noundef nonnull align 8 dereferenceable(16) %0, ptr noundef %1) unnamed_addr #10 comdat align 2 {
  %3 = alloca ptr, align 8
  %4 = alloca ptr, align 8
  store ptr %0, ptr %3, align 8, !tbaa !259
  store ptr %1, ptr %4, align 8, !tbaa !89
  %5 = load ptr, ptr %3, align 8
  %6 = load ptr, ptr %4, align 8, !tbaa !89
  call void @_ZNSt13runtime_errorC2EPKc(ptr noundef nonnull align 8 dereferenceable(16) %5, ptr noundef %6)
  store ptr getelementptr inbounds inrange(-16, 32) ({ [6 x ptr] }, ptr @_ZTVN8pybind1117builtin_exceptionE, i32 0, i32 0, i32 2), ptr %5, align 8, !tbaa !223
  ret void
}

; Function Attrs: inlinehint mustprogress uwtable
define linkonce_odr hidden void @_ZN8pybind1120reference_cast_errorCI2St13runtime_errorEPKc(ptr noundef nonnull align 8 dereferenceable(16) %0, ptr noundef %1) unnamed_addr #10 comdat align 2 {
  %3 = alloca ptr, align 8
  %4 = alloca ptr, align 8
  store ptr %0, ptr %3, align 8, !tbaa !2217
  store ptr %1, ptr %4, align 8, !tbaa !89
  %5 = load ptr, ptr %3, align 8
  %6 = load ptr, ptr %4, align 8, !tbaa !89
  call void @_ZN8pybind1117builtin_exceptionCI2St13runtime_errorEPKc(ptr noundef nonnull align 8 dereferenceable(16) %5, ptr noundef %6)
  store ptr getelementptr inbounds inrange(-16, 32) ({ [6 x ptr] }, ptr @_ZTVN8pybind1120reference_cast_errorE, i32 0, i32 0, i32 2), ptr %5, align 8, !tbaa !223
  ret void
}

; Function Attrs: mustprogress uwtable
define internal void @_ZN8pybind116detail16type_caster_baseIZ22test_submodule_buffersRNS_7module_EE20BufferReadOnlySelectEC2ERKSt9type_info(ptr noundef nonnull align 8 dereferenceable(24) %0, ptr noundef nonnull align 8 dereferenceable(16) %1) unnamed_addr #4 align 2 {
  %3 = alloca ptr, align 8
  %4 = alloca ptr, align 8
  store ptr %0, ptr %3, align 8, !tbaa !2753
  store ptr %1, ptr %4, align 8, !tbaa !397
  %5 = load ptr, ptr %3, align 8
  %6 = load ptr, ptr %4, align 8, !tbaa !397
  call void @_ZN8pybind116detail19type_caster_genericC2ERKSt9type_info(ptr noundef nonnull align 8 dereferenceable(24) %5, ptr noundef nonnull align 8 dereferenceable(16) %6)
  ret void
}

; Function Attrs: mustprogress uwtable
define linkonce_odr hidden void @_ZN8pybind1120reference_cast_errorC2Ev(ptr noundef nonnull align 8 dereferenceable(16) %0) unnamed_addr #4 comdat align 2 {
  %2 = alloca ptr, align 8
  store ptr %0, ptr %2, align 8, !tbaa !2217
  %3 = load ptr, ptr %2, align 8
  call void @_ZN8pybind1120reference_cast_errorCI2St13runtime_errorEPKc(ptr noundef nonnull align 8 dereferenceable(16) %3, ptr noundef @.str.87)
  ret void
}

; Function Attrs: mustprogress uwtable
define internal void @_ZN8pybind116detail16type_caster_baseIZ22test_submodule_buffersRNS_7module_EE20BufferReadOnlySelectEC2Ev(ptr noundef nonnull align 8 dereferenceable(24) %0) unnamed_addr #4 align 2 {
  %2 = alloca ptr, align 8
  store ptr %0, ptr %2, align 8, !tbaa !2753
  %3 = load ptr, ptr %2, align 8
  call void @_ZN8pybind116detail16type_caster_baseIZ22test_submodule_buffersRNS_7module_EE20BufferReadOnlySelectEC2ERKSt9type_info(ptr noundef nonnull align 8 dereferenceable(24) %3, ptr noundef nonnull align 8 dereferenceable(16) @_ZTIZ22test_submodule_buffersRN8pybind117module_EE20BufferReadOnlySelect)
  ret void
}

; Function Attrs: inlinehint mustprogress uwtable
define internal void @_ZZN8pybind116class_IZ22test_submodule_buffersRNS_7module_EE20BufferReadOnlySelectJEE10def_bufferINS_11buffer_infoES3_JEEERS4_MT0_FT_DpT1_EENKUlRS3_E_clESE_(ptr dead_on_unwind noalias writable sret(%"struct.pybind11::buffer_info") align 8 %0, ptr noundef nonnull align 8 dereferenceable(16) %1, ptr noundef nonnull align 1 dereferenceable(2) %2) #10 align 2 {
  %4 = alloca ptr, align 8
  %5 = alloca ptr, align 8
  %6 = alloca ptr, align 8
  store ptr %0, ptr %4, align 8
  store ptr %1, ptr %5, align 8, !tbaa !96
  store ptr %2, ptr %6, align 8, !tbaa !207
  %7 = load ptr, ptr %5, align 8
  %8 = load ptr, ptr %6, align 8, !tbaa !207
  %9 = getelementptr inbounds nuw %class.anon.1040, ptr %7, i32 0, i32 0
  %10 = load { i64, i64 }, ptr %9, align 8, !tbaa !205
  %11 = extractvalue { i64, i64 } %10, 1
  %12 = getelementptr inbounds i8, ptr %8, i64 %11
  %13 = extractvalue { i64, i64 } %10, 0
  %14 = and i64 %13, 1
  %15 = icmp ne i64 %14, 0
  br i1 %15, label %16, label %21

16:                                               ; preds = %3
  %17 = load ptr, ptr %12, align 8, !tbaa !223
  %18 = sub i64 %13, 1
  %19 = getelementptr i8, ptr %17, i64 %18, !nosanitize !65
  %20 = load ptr, ptr %19, align 8, !nosanitize !65
  br label %23

21:                                               ; preds = %3
  %22 = inttoptr i64 %13 to ptr
  br label %23

23:                                               ; preds = %21, %16
  %24 = phi ptr [ %20, %16 ], [ %22, %21 ]
  call void %24(ptr dead_on_unwind writable sret(%"struct.pybind11::buffer_info") align 8 %0, ptr noundef nonnull align 1 dereferenceable(2) %12)
  ret void
}

; Function Attrs: mustprogress uwtable
define internal noundef nonnull align 1 dereferenceable(2) ptr @_ZN8pybind116detail16type_caster_baseIZ22test_submodule_buffersRNS_7module_EE20BufferReadOnlySelectEcvRS4_Ev(ptr noundef nonnull align 8 dereferenceable(24) %0) #4 align 2 personality ptr @__gxx_personality_v0 {
  %2 = alloca ptr, align 8
  %3 = alloca ptr, align 8
  %4 = alloca i32, align 4
  store ptr %0, ptr %2, align 8, !tbaa !2753
  %5 = load ptr, ptr %2, align 8
  %6 = getelementptr inbounds nuw %"class.pybind11::detail::type_caster_generic", ptr %5, i32 0, i32 2
  %7 = load ptr, ptr %6, align 8, !tbaa !1657
  %8 = icmp ne ptr %7, null
  br i1 %8, label %16, label %9

9:                                                ; preds = %1
  %10 = call ptr @__cxa_allocate_exception(i64 16) #24
  invoke void @_ZN8pybind1120reference_cast_errorC2Ev(ptr noundef nonnull align 8 dereferenceable(16) %10)
          to label %11 unwind label %12

11:                                               ; preds = %9
  call void @__cxa_throw(ptr %10, ptr @_ZTIN8pybind1120reference_cast_errorE, ptr @_ZNSt13runtime_errorD2Ev) #33
  unreachable

12:                                               ; preds = %9
  %13 = landingpad { ptr, i32 }
          cleanup
  %14 = extractvalue { ptr, i32 } %13, 0
  store ptr %14, ptr %3, align 8
  %15 = extractvalue { ptr, i32 } %13, 1
  store i32 %15, ptr %4, align 4
  call void @__cxa_free_exception(ptr %10) #24
  br label %19

16:                                               ; preds = %1
  %17 = getelementptr inbounds nuw %"class.pybind11::detail::type_caster_generic", ptr %5, i32 0, i32 2
  %18 = load ptr, ptr %17, align 8, !tbaa !1657
  ret ptr %18

19:                                               ; preds = %12
  %20 = load ptr, ptr %3, align 8
  %21 = load i32, ptr %4, align 4
  %22 = insertvalue { ptr, i32 } poison, ptr %20, 0
  %23 = insertvalue { ptr, i32 } %22, i32 %21, 1
  resume { ptr, i32 } %23
}

; Function Attrs: mustprogress uwtable
define linkonce_odr hidden noundef zeroext i1 @_ZN8pybind116detail19type_caster_generic4loadENS_6handleEb(ptr noundef nonnull align 8 dereferenceable(24) %0, ptr %1, i1 noundef zeroext %2) #4 comdat align 2 {
  %4 = alloca %"class.pybind11::handle", align 8
  %5 = alloca ptr, align 8
  %6 = alloca i8, align 1
  %7 = alloca %"class.pybind11::handle", align 8
  %8 = getelementptr inbounds nuw %"class.pybind11::handle", ptr %4, i32 0, i32 0
  store ptr %1, ptr %8, align 8
  store ptr %0, ptr %5, align 8, !tbaa !1982
  %9 = zext i1 %2 to i8
  store i8 %9, ptr %6, align 1, !tbaa !84
  %10 = load ptr, ptr %5, align 8
  call void @llvm.memcpy.p0.p0.i64(ptr align 8 %7, ptr align 8 %4, i64 8, i1 false)
  %11 = load i8, ptr %6, align 1, !tbaa !84, !range !64, !noundef !65
  %12 = trunc i8 %11 to i1
  %13 = getelementptr inbounds nuw %"class.pybind11::handle", ptr %7, i32 0, i32 0
  %14 = load ptr, ptr %13, align 8
  %15 = call noundef zeroext i1 @_ZN8pybind116detail19type_caster_generic9load_implIS1_EEbNS_6handleEb(ptr noundef nonnull align 8 dereferenceable(24) %10, ptr %14, i1 noundef zeroext %12)
  ret i1 %15
}

; Function Attrs: mustprogress nounwind uwtable
define linkonce_odr hidden void @_ZN8pybind116handleC2IP7_objectTnNSt9enable_ifIXsr6detail25is_pyobj_ptr_or_nullptr_tIT_EE5valueEiE4typeELi0EEES5_(ptr noundef nonnull align 8 dereferenceable(8) %0, ptr noundef %1) unnamed_addr #5 comdat align 2 {
  %3 = alloca ptr, align 8
  %4 = alloca ptr, align 8
  store ptr %0, ptr %3, align 8, !tbaa !246
  store ptr %1, ptr %4, align 8, !tbaa !241
  %5 = load ptr, ptr %3, align 8
  %6 = getelementptr inbounds nuw %"class.pybind11::handle", ptr %5, i32 0, i32 0
  %7 = load ptr, ptr %4, align 8, !tbaa !241
  store ptr %7, ptr %6, align 8, !tbaa !125
  ret void
}

; Function Attrs: inlinehint mustprogress uwtable
define internal void @_ZN8pybind116detail11type_casterIZ22test_submodule_buffersRNS_7module_EE20BufferReadOnlySelectvEC2Ev(ptr noundef nonnull align 8 dereferenceable(24) %0) unnamed_addr #10 align 2 {
  %2 = alloca ptr, align 8
  store ptr %0, ptr %2, align 8, !tbaa !2751
  %3 = load ptr, ptr %2, align 8
  call void @_ZN8pybind116detail16type_caster_baseIZ22test_submodule_buffersRNS_7module_EE20BufferReadOnlySelectEC2Ev(ptr noundef nonnull align 8 dereferenceable(24) %3)
  ret void
}

; Function Attrs: inlinehint mustprogress uwtable
define internal noundef ptr @_ZZN8pybind116class_IZ22test_submodule_buffersRNS_7module_EE20BufferReadOnlySelectJEE10def_bufferIZNS4_10def_bufferINS_11buffer_infoES3_JEEERS4_MT0_FT_DpT1_EEUlRS3_E_EES8_OSA_ENKUlP7_objectPvE_clESJ_SK_(ptr noundef nonnull align 1 dereferenceable(1) %0, ptr noundef %1, ptr noundef %2) #10 align 2 personality ptr @__gxx_personality_v0 {
  %4 = alloca ptr, align 8
  %5 = alloca ptr, align 8
  %6 = alloca ptr, align 8
  %7 = alloca ptr, align 8
  %8 = alloca %"class.pybind11::detail::type_caster.1016", align 8
  %9 = alloca %"class.pybind11::handle", align 8
  %10 = alloca i32, align 4
  %11 = alloca ptr, align 8
  %12 = alloca i32, align 4
  store ptr %0, ptr %5, align 8, !tbaa !96
  store ptr %1, ptr %6, align 8, !tbaa !241
  store ptr %2, ptr %7, align 8, !tbaa !96
  call void @llvm.lifetime.start.p0(i64 24, ptr %8) #24
  call void @_ZN8pybind116detail11type_casterIZ22test_submodule_buffersRNS_7module_EE20BufferReadOnlySelectvEC2Ev(ptr noundef nonnull align 8 dereferenceable(24) %8)
  %13 = load ptr, ptr %6, align 8, !tbaa !241
  call void @_ZN8pybind116handleC2IP7_objectTnNSt9enable_ifIXsr6detail25is_pyobj_ptr_or_nullptr_tIT_EE5valueEiE4typeELi0EEES5_(ptr noundef nonnull align 8 dereferenceable(8) %9, ptr noundef %13)
  %14 = getelementptr inbounds nuw %"class.pybind11::handle", ptr %9, i32 0, i32 0
  %15 = load ptr, ptr %14, align 8
  %16 = call noundef zeroext i1 @_ZN8pybind116detail19type_caster_generic4loadENS_6handleEb(ptr noundef nonnull align 8 dereferenceable(24) %8, ptr %15, i1 noundef zeroext false)
  br i1 %16, label %18, label %17

17:                                               ; preds = %3
  store ptr null, ptr %4, align 8
  store i32 1, ptr %10, align 4
  br label %29

18:                                               ; preds = %3
  %19 = call noalias noundef nonnull ptr @_Znwm(i64 noundef 136) #31
  %20 = load ptr, ptr %7, align 8, !tbaa !96
  %21 = getelementptr inbounds nuw %struct.capture.1041, ptr %20, i32 0, i32 0
  %22 = invoke noundef nonnull align 1 dereferenceable(2) ptr @_ZN8pybind116detail16type_caster_baseIZ22test_submodule_buffersRNS_7module_EE20BufferReadOnlySelectEcvRS4_Ev(ptr noundef nonnull align 8 dereferenceable(24) %8)
          to label %23 unwind label %25

23:                                               ; preds = %18
  invoke void @_ZZN8pybind116class_IZ22test_submodule_buffersRNS_7module_EE20BufferReadOnlySelectJEE10def_bufferINS_11buffer_infoES3_JEEERS4_MT0_FT_DpT1_EENKUlRS3_E_clESE_(ptr dead_on_unwind writable sret(%"struct.pybind11::buffer_info") align 8 %19, ptr noundef nonnull align 8 dereferenceable(16) %21, ptr noundef nonnull align 1 dereferenceable(2) %22)
          to label %24 unwind label %25

24:                                               ; preds = %23
  store ptr %19, ptr %4, align 8
  store i32 1, ptr %10, align 4
  br label %29

25:                                               ; preds = %23, %18
  %26 = landingpad { ptr, i32 }
          cleanup
  %27 = extractvalue { ptr, i32 } %26, 0
  store ptr %27, ptr %11, align 8
  %28 = extractvalue { ptr, i32 } %26, 1
  store i32 %28, ptr %12, align 4
  call void @_ZdlPvm(ptr noundef %19, i64 noundef 136) #32
  call void @llvm.lifetime.end.p0(i64 24, ptr %8) #24
  br label %31

29:                                               ; preds = %24, %17
  call void @llvm.lifetime.end.p0(i64 24, ptr %8) #24
  %30 = load ptr, ptr %4, align 8
  ret ptr %30

31:                                               ; preds = %25
  %32 = load ptr, ptr %11, align 8
  %33 = load i32, ptr %12, align 4
  %34 = insertvalue { ptr, i32 } poison, ptr %32, 0
  %35 = insertvalue { ptr, i32 } %34, i32 %33, 1
  resume { ptr, i32 } %35
}

; Function Attrs: inlinehint mustprogress uwtable
define internal noundef ptr @_ZZN8pybind116class_IZ22test_submodule_buffersRNS_7module_EE20BufferReadOnlySelectJEE10def_bufferIZNS4_10def_bufferINS_11buffer_infoES3_JEEERS4_MT0_FT_DpT1_EEUlRS3_E_EES8_OSA_ENUlP7_objectPvE_8__invokeESJ_SK_(ptr noundef %0, ptr noundef %1) #10 align 2 {
  %3 = alloca ptr, align 8
  %4 = alloca ptr, align 8
  %5 = alloca %class.anon.1042, align 1
  store ptr %0, ptr %3, align 8, !tbaa !241
  store ptr %1, ptr %4, align 8, !tbaa !96
  %6 = load ptr, ptr %3, align 8, !tbaa !241
  %7 = load ptr, ptr %4, align 8, !tbaa !96
  %8 = call noundef ptr @_ZZN8pybind116class_IZ22test_submodule_buffersRNS_7module_EE20BufferReadOnlySelectJEE10def_bufferIZNS4_10def_bufferINS_11buffer_infoES3_JEEERS4_MT0_FT_DpT1_EEUlRS3_E_EES8_OSA_ENKUlP7_objectPvE_clESJ_SK_(ptr noundef nonnull align 1 dereferenceable(1) %5, ptr noundef %6, ptr noundef %7)
  ret ptr %8
}