; Function Attrs: inlinehint mustprogress uwtable
define internal noundef ptr @_ZZN8pybind116class_IZ22test_submodule_buffersRNS_7module_EE20BufferReadOnlySelectJEE10def_bufferIZNS4_10def_bufferINS_11buffer_infoES3_JEEERS4_MT0_FT_DpT1_EEUlRS3_E_EES8_OSA_ENUlP7_objectPvE_8__invokeESJ_SK_(ptr noundef %0, ptr noundef readonly captures(none) %1) #13 align 2 personality ptr @__gxx_personality_v0 {
  %3 = alloca %"class.pybind11::detail::type_caster.1016", align 8
  call void @llvm.lifetime.start.p0(i64 24, ptr nonnull %3) #35
  call void @_ZN8pybind116detail19type_caster_genericC2ERKSt9type_info(ptr noundef nonnull align 8 dereferenceable(24) %3, ptr noundef nonnull align 8 dereferenceable(16) @_ZTIZ22test_submodule_buffersRN8pybind117module_EE20BufferReadOnlySelect)
  %4 = call noundef zeroext i1 @_ZN8pybind116detail19type_caster_generic9load_implIS1_EEbNS_6handleEb(ptr noundef nonnull align 8 dereferenceable(24) %3, ptr %0, i1 noundef zeroext false)
  br i1 %4, label %5, label %_ZZN8pybind116class_IZ22test_submodule_buffersRNS_7module_EE20BufferReadOnlySelectJEE10def_bufferIZNS4_10def_bufferINS_11buffer_infoES3_JEEERS4_MT0_FT_DpT1_EEUlRS3_E_EES8_OSA_ENKUlP7_objectPvE_clESJ_SK_.exit

5:                                                ; preds = %2
  %6 = call noalias noundef nonnull dereferenceable(136) ptr @_Znwm(i64 noundef 136) #39
  %7 = getelementptr inbounds nuw i8, ptr %3, i64 16
  %.val.i = load ptr, ptr %7, align 8, !tbaa !1435
  %.not.i.i = icmp eq ptr %.val.i, null
  br i1 %.not.i.i, label %8, label %_ZN8pybind116detail16type_caster_baseIZ22test_submodule_buffersRNS_7module_EE20BufferReadOnlySelectEcvRS4_Ev.exit.i

8:                                                ; preds = %5
  %9 = call ptr @__cxa_allocate_exception(i64 16) #35
  invoke void @_ZNSt13runtime_errorC2EPKc(ptr noundef nonnull align 8 dereferenceable(16) %9, ptr noundef nonnull @.str.87)
          to label %10 unwind label %11

10:                                               ; preds = %8
  store ptr getelementptr inbounds nuw inrange(-16, 32) (i8, ptr @_ZTVN8pybind1120reference_cast_errorE, i64 16), ptr %9, align 8, !tbaa !554
  invoke void @__cxa_throw(ptr nonnull %9, ptr nonnull @_ZTIN8pybind1120reference_cast_errorE, ptr nonnull @_ZNSt13runtime_errorD2Ev) #37
          to label %.noexc.i unwind label %25

.noexc.i:                                         ; preds = %10
  unreachable

11:                                               ; preds = %8
  %12 = landingpad { ptr, i32 }
          cleanup
  call void @__cxa_free_exception(ptr nonnull %9) #35
  br label %.body.i

_ZN8pybind116detail16type_caster_baseIZ22test_submodule_buffersRNS_7module_EE20BufferReadOnlySelectEcvRS4_Ev.exit.i: ; preds = %5
  %.val4.i = load i64, ptr %1, align 8, !tbaa !2188
  %13 = getelementptr i8, ptr %1, i64 8
  %.val5.i = load i64, ptr %13, align 8, !tbaa !2188
  %14 = getelementptr inbounds i8, ptr %.val.i, i64 %.val5.i
  %15 = and i64 %.val4.i, 1
  %.not.i6.i = icmp eq i64 %15, 0
  br i1 %.not.i6.i, label %21, label %16

16:                                               ; preds = %_ZN8pybind116detail16type_caster_baseIZ22test_submodule_buffersRNS_7module_EE20BufferReadOnlySelectEcvRS4_Ev.exit.i
  %17 = load ptr, ptr %14, align 8, !tbaa !554, !noalias !2190
  %18 = getelementptr i8, ptr %17, i64 %.val4.i
  %19 = getelementptr i8, ptr %18, i64 -1
  %20 = load ptr, ptr %19, align 8, !noalias !2190, !nosanitize !73
  br label %23

21:                                               ; preds = %_ZN8pybind116detail16type_caster_baseIZ22test_submodule_buffersRNS_7module_EE20BufferReadOnlySelectEcvRS4_Ev.exit.i
  %22 = inttoptr i64 %.val4.i to ptr
  br label %23

23:                                               ; preds = %21, %16
  %24 = phi ptr [ %20, %16 ], [ %22, %21 ]
  invoke void %24(ptr dead_on_unwind nonnull writable sret(%"struct.pybind11::buffer_info") align 8 %6, ptr noundef nonnull align 1 dereferenceable(2) %14)
          to label %_ZZN8pybind116class_IZ22test_submodule_buffersRNS_7module_EE20BufferReadOnlySelectJEE10def_bufferIZNS4_10def_bufferINS_11buffer_infoES3_JEEERS4_MT0_FT_DpT1_EEUlRS3_E_EES8_OSA_ENKUlP7_objectPvE_clESJ_SK_.exit unwind label %25

25:                                               ; preds = %23, %10
  %26 = landingpad { ptr, i32 }
          cleanup
  br label %.body.i

.body.i:                                          ; preds = %25, %11
  %eh.lpad-body.i = phi { ptr, i32 } [ %26, %25 ], [ %12, %11 ]
  call void @_ZdlPvm(ptr noundef nonnull %6, i64 noundef 136) #38
  call void @llvm.lifetime.end.p0(i64 24, ptr nonnull %3) #35
  resume { ptr, i32 } %eh.lpad-body.i

_ZZN8pybind116class_IZ22test_submodule_buffersRNS_7module_EE20BufferReadOnlySelectJEE10def_bufferIZNS4_10def_bufferINS_11buffer_infoES3_JEEERS4_MT0_FT_DpT1_EEUlRS3_E_EES8_OSA_ENKUlP7_objectPvE_clESJ_SK_.exit: ; preds = %2, %23
  %.0.i = phi ptr [ null, %2 ], [ %6, %23 ]
  call void @llvm.lifetime.end.p0(i64 24, ptr nonnull %3) #35
  ret ptr %.0.i
}